target datalayout = "e-m:e-p270:32:32-p271:32:32-p272:64:64-i64:64-i128:128-f80:128-n8:16:32:64-S128"
target triple = "x86_64-pc-linux-gnu"

%struct.Aig_Man_t_ = type { ptr, ptr, ptr, ptr, ptr, ptr, ptr, %struct.Aig_Obj_t_, i32, i32, i32, i32, i32, i32, [7 x i32], i32, ptr, i32, ptr, i32, ptr, i32, i32, i32, ptr, i32, i32, i32, i32, i32, ptr, ptr, i32, ptr, ptr, i32, ptr, ptr, i32, i32, i32, ptr, ptr, ptr, ptr, ptr, ptr, ptr, ptr, ptr, ptr, ptr, ptr, ptr, ptr, i32, ptr, ptr, ptr, ptr, i32, i64, i64, i64, ptr, ptr }
%struct.Aig_Obj_t_ = type { %union.anon, ptr, ptr, i64, i32, i32, %union.anon.0 }
%union.anon = type { ptr }
%union.anon.0 = type { ptr }
%struct.Vec_Ptr_t_ = type { i32, i32, ptr }

; Function Attrs: inlinehint nounwind uwtable
define internal ptr @Aig_Not(ptr noundef %0) #2 {
  %2 = alloca ptr, align 8
  store ptr %0, ptr %2, align 8, !tbaa !24
  %3 = load ptr, ptr %2, align 8, !tbaa !24
  %4 = ptrtoint ptr %3 to i64
  %5 = xor i64 %4, 1
  %6 = inttoptr i64 %5 to ptr
  ret ptr %6
}

; Function Attrs: inlinehint nounwind uwtable
define internal i32 @Aig_IsComplement(ptr noundef %0) #2 {
  %2 = alloca ptr, align 8
  store ptr %0, ptr %2, align 8, !tbaa !24
  %3 = load ptr, ptr %2, align 8, !tbaa !24
  %4 = ptrtoint ptr %3 to i64
  %5 = and i64 %4, 1
  %6 = trunc i64 %5 to i32
  ret i32 %6
}

; Function Attrs: inlinehint nounwind uwtable
define internal i32 @Aig_ObjCioId(ptr noundef %0) #2 {
  %2 = alloca ptr, align 8
  store ptr %0, ptr %2, align 8, !tbaa !24
  %3 = load ptr, ptr %2, align 8, !tbaa !24
  %4 = getelementptr inbounds nuw %struct.Aig_Obj_t_, ptr %3, i32 0, i32 0
  %5 = load i32, ptr %4, align 8, !tbaa !35
  ret i32 %5
}

; Function Attrs: inlinehint nounwind uwtable
define internal i32 @Aig_ObjIsCi(ptr noundef %0) #2 {
  %2 = alloca ptr, align 8
  store ptr %0, ptr %2, align 8, !tbaa !24
  %3 = load ptr, ptr %2, align 8, !tbaa !24
  %4 = getelementptr inbounds nuw %struct.Aig_Obj_t_, ptr %3, i32 0, i32 3
  %5 = load i64, ptr %4, align 8
  %6 = and i64 %5, 7
  %7 = trunc i64 %6 to i32
  %8 = icmp eq i32 %7, 2
  %9 = zext i1 %8 to i32
  ret i32 %9
}

; Function Attrs: inlinehint nounwind uwtable
define internal ptr @Aig_Regular(ptr noundef %0) #2 {
  %2 = alloca ptr, align 8
  store ptr %0, ptr %2, align 8, !tbaa !24
  %3 = load ptr, ptr %2, align 8, !tbaa !24
  %4 = ptrtoint ptr %3 to i64
  %5 = and i64 %4, -2
  %6 = inttoptr i64 %5 to ptr
  ret ptr %6
}

; Function Attrs: inlinehint nounwind uwtable
define internal ptr @Aig_ManConst1(ptr noundef %0) #2 {
  %2 = alloca ptr, align 8
  store ptr %0, ptr %2, align 8, !tbaa !3
  %3 = load ptr, ptr %2, align 8, !tbaa !3
  %4 = getelementptr inbounds nuw %struct.Aig_Man_t_, ptr %3, i32 0, i32 6
  %5 = load ptr, ptr %4, align 8, !tbaa !34
  ret ptr %5
}

; Function Attrs: inlinehint nounwind uwtable
define internal ptr @Aig_ManConst0(ptr noundef %0) #2 {
  %2 = alloca ptr, align 8
  store ptr %0, ptr %2, align 8, !tbaa !3
  %3 = load ptr, ptr %2, align 8, !tbaa !3
  %4 = getelementptr inbounds nuw %struct.Aig_Man_t_, ptr %3, i32 0, i32 6
  %5 = load ptr, ptr %4, align 8, !tbaa !34
  %6 = call ptr @Aig_Not(ptr noundef %5)
  ret ptr %6
}

; Function Attrs: inlinehint nounwind uwtable
define internal ptr @Aig_ObjChild0(ptr noundef %0) #2 {
  %2 = alloca ptr, align 8
  store ptr %0, ptr %2, align 8, !tbaa !24
  %3 = load ptr, ptr %2, align 8, !tbaa !24
  %4 = getelementptr inbounds nuw %struct.Aig_Obj_t_, ptr %3, i32 0, i32 1
  %5 = load ptr, ptr %4, align 8, !tbaa !33
  ret ptr %5
}

; Function Attrs: inlinehint nounwind uwtable
define internal ptr @Vec_PtrEntry(ptr noundef %0, i32 noundef %1) #2 {
  %3 = alloca ptr, align 8
  %4 = alloca i32, align 4
  store ptr %0, ptr %3, align 8, !tbaa !29
  store i32 %1, ptr %4, align 4, !tbaa !8
  %5 = load ptr, ptr %3, align 8, !tbaa !29
  %6 = getelementptr inbounds nuw %struct.Vec_Ptr_t_, ptr %5, i32 0, i32 2
  %7 = load ptr, ptr %6, align 8, !tbaa !30
  %8 = load i32, ptr %4, align 4, !tbaa !8
  %9 = sext i32 %8 to i64
  %10 = getelementptr inbounds ptr, ptr %7, i64 %9
  %11 = load ptr, ptr %10, align 8, !tbaa !32
  ret ptr %11
}

; Function Attrs: inlinehint nounwind uwtable
define internal i32 @Aig_ManRegNum(ptr noundef %0) #2 {
  %2 = alloca ptr, align 8
  store ptr %0, ptr %2, align 8, !tbaa !3
  %3 = load ptr, ptr %2, align 8, !tbaa !3
  %4 = getelementptr inbounds nuw %struct.Aig_Man_t_, ptr %3, i32 0, i32 8
  %5 = load i32, ptr %4, align 8, !tbaa !28
  ret i32 %5
}

; Function Attrs: inlinehint nounwind uwtable
define internal i32 @Aig_ManCoNum(ptr noundef %0) #2 {
  %2 = alloca ptr, align 8
  store ptr %0, ptr %2, align 8, !tbaa !3
  %3 = load ptr, ptr %2, align 8, !tbaa !3
  %4 = getelementptr inbounds nuw %struct.Aig_Man_t_, ptr %3, i32 0, i32 14
  %5 = getelementptr inbounds [7 x i32], ptr %4, i64 0, i64 3
  %6 = load i32, ptr %5, align 4, !tbaa !8
  ret i32 %6
}

; Function Attrs: nounwind uwtable
define i32 @Fra_FraigMiterStatus(ptr noundef %0) #0 {
  %2 = alloca i32, align 4
  %3 = alloca ptr, align 8
  %4 = alloca ptr, align 8
  %5 = alloca ptr, align 8
  %6 = alloca i32, align 4
  %7 = alloca i32, align 4
  %8 = alloca i32, align 4
  %9 = alloca i32, align 4
  %10 = alloca i32, align 4
  store ptr %0, ptr %3, align 8, !tbaa !3
  call void @llvm.lifetime.start.p0(i64 8, ptr %4) #7
  call void @llvm.lifetime.start.p0(i64 8, ptr %5) #7
  call void @llvm.lifetime.start.p0(i64 4, ptr %6) #7
  call void @llvm.lifetime.start.p0(i64 4, ptr %7) #7
  store i32 0, ptr %7, align 4, !tbaa !8
  call void @llvm.lifetime.start.p0(i64 4, ptr %8) #7
  store i32 0, ptr %8, align 4, !tbaa !8
  call void @llvm.lifetime.start.p0(i64 4, ptr %9) #7
  store i32 0, ptr %9, align 4, !tbaa !8
  %11 = load ptr, ptr %3, align 8, !tbaa !3
  %12 = getelementptr inbounds nuw %struct.Aig_Man_t_, ptr %11, i32 0, i32 36
  %13 = load ptr, ptr %12, align 8, !tbaa !10
  %14 = icmp ne ptr %13, null
  br i1 %14, label %15, label %16

15:                                               ; preds = %1
  store i32 0, ptr %2, align 4
  store i32 1, ptr %10, align 4
  br label %96

16:                                               ; preds = %1
  store i32 0, ptr %6, align 4, !tbaa !8
  br label %17

17:                                               ; preds = %84, %16
  %18 = load i32, ptr %6, align 4, !tbaa !8
  %19 = load ptr, ptr %3, align 8, !tbaa !3
  %20 = call i32 @Aig_ManCoNum(ptr noundef %19)
  %21 = load ptr, ptr %3, align 8, !tbaa !3
  %22 = call i32 @Aig_ManRegNum(ptr noundef %21)
  %23 = sub nsw i32 %20, %22
  %24 = icmp slt i32 %18, %23
  br i1 %24, label %25, label %31

25:                                               ; preds = %17
  %26 = load ptr, ptr %3, align 8, !tbaa !3
  %27 = getelementptr inbounds nuw %struct.Aig_Man_t_, ptr %26, i32 0, i32 3
  %28 = load ptr, ptr %27, align 8, !tbaa !23
  %29 = load i32, ptr %6, align 4, !tbaa !8
  %30 = call ptr @Vec_PtrEntry(ptr noundef %28, i32 noundef %29)
  store ptr %30, ptr %4, align 8, !tbaa !24
  br label %31

31:                                               ; preds = %25, %17
  %32 = phi i1 [ false, %17 ], [ true, %25 ]
  br i1 %32, label %33, label %87

33:                                               ; preds = %31
  %34 = load ptr, ptr %4, align 8, !tbaa !24
  %35 = call ptr @Aig_ObjChild0(ptr noundef %34)
  store ptr %35, ptr %5, align 8, !tbaa !24
  %36 = load ptr, ptr %5, align 8, !tbaa !24
  %37 = load ptr, ptr %3, align 8, !tbaa !3
  %38 = call ptr @Aig_ManConst0(ptr noundef %37)
  %39 = icmp eq ptr %36, %38
  br i1 %39, label %40, label %43

40:                                               ; preds = %33
  %41 = load i32, ptr %7, align 4, !tbaa !8
  %42 = add nsw i32 %41, 1
  store i32 %42, ptr %7, align 4, !tbaa !8
  br label %84

43:                                               ; preds = %33
  %44 = load ptr, ptr %5, align 8, !tbaa !24
  %45 = load ptr, ptr %3, align 8, !tbaa !3
  %46 = call ptr @Aig_ManConst1(ptr noundef %45)
  %47 = icmp eq ptr %44, %46
  br i1 %47, label %48, label %51

48:                                               ; preds = %43
  %49 = load i32, ptr %8, align 4, !tbaa !8
  %50 = add nsw i32 %49, 1
  store i32 %50, ptr %8, align 4, !tbaa !8
  br label %84

51:                                               ; preds = %43
  %52 = load ptr, ptr %5, align 8, !tbaa !24
  %53 = call ptr @Aig_Regular(ptr noundef %52)
  %54 = call i32 @Aig_ObjIsCi(ptr noundef %53)
  %55 = icmp ne i32 %54, 0
  br i1 %55, label %56, label %67

56:                                               ; preds = %51
  %57 = load ptr, ptr %5, align 8, !tbaa !24
  %58 = call ptr @Aig_Regular(ptr noundef %57)
  %59 = call i32 @Aig_ObjCioId(ptr noundef %58)
  %60 = load ptr, ptr %3, align 8, !tbaa !3
  %61 = getelementptr inbounds nuw %struct.Aig_Man_t_, ptr %60, i32 0, i32 9
  %62 = load i32, ptr %61, align 4, !tbaa !25
  %63 = icmp slt i32 %59, %62
  br i1 %63, label %64, label %67

64:                                               ; preds = %56
  %65 = load i32, ptr %8, align 4, !tbaa !8
  %66 = add nsw i32 %65, 1
  store i32 %66, ptr %8, align 4, !tbaa !8
  br label %84

67:                                               ; preds = %56, %51
  %68 = load ptr, ptr %5, align 8, !tbaa !24
  %69 = call ptr @Aig_Regular(ptr noundef %68)
  %70 = getelementptr inbounds nuw %struct.Aig_Obj_t_, ptr %69, i32 0, i32 3
  %71 = load i64, ptr %70, align 8
  %72 = lshr i64 %71, 3
  %73 = and i64 %72, 1
  %74 = trunc i64 %73 to i32
  %75 = load ptr, ptr %5, align 8, !tbaa !24
  %76 = call i32 @Aig_IsComplement(ptr noundef %75)
  %77 = icmp ne i32 %74, %76
  br i1 %77, label %78, label %81

78:                                               ; preds = %67
  %79 = load i32, ptr %8, align 4, !tbaa !8
  %80 = add nsw i32 %79, 1
  store i32 %80, ptr %8, align 4, !tbaa !8
  br label %84

81:                                               ; preds = %67
  %82 = load i32, ptr %9, align 4, !tbaa !8
  %83 = add nsw i32 %82, 1
  store i32 %83, ptr %9, align 4, !tbaa !8
  br label %84

84:                                               ; preds = %81, %78, %64, %48, %40
  %85 = load i32, ptr %6, align 4, !tbaa !8
  %86 = add nsw i32 %85, 1
  store i32 %86, ptr %6, align 4, !tbaa !8
  br label %17, !llvm.loop !26

87:                                               ; preds = %31
  %88 = load i32, ptr %8, align 4, !tbaa !8
  %89 = icmp ne i32 %88, 0
  br i1 %89, label %90, label %91

90:                                               ; preds = %87
  store i32 0, ptr %2, align 4
  store i32 1, ptr %10, align 4
  br label %96

91:                                               ; preds = %87
  %92 = load i32, ptr %9, align 4, !tbaa !8
  %93 = icmp ne i32 %92, 0
  br i1 %93, label %94, label %95

94:                                               ; preds = %91
  store i32 -1, ptr %2, align 4
  store i32 1, ptr %10, align 4
  br label %96

95:                                               ; preds = %91
  store i32 1, ptr %2, align 4
  store i32 1, ptr %10, align 4
  br label %96

96:                                               ; preds = %95, %94, %90, %15
  call void @llvm.lifetime.end.p0(i64 4, ptr %9) #7
  call void @llvm.lifetime.end.p0(i64 4, ptr %8) #7
  call void @llvm.lifetime.end.p0(i64 4, ptr %7) #7
  call void @llvm.lifetime.end.p0(i64 4, ptr %6) #7
  call void @llvm.lifetime.end.p0(i64 8, ptr %5) #7
  call void @llvm.lifetime.end.p0(i64 8, ptr %4) #7
  %97 = load i32, ptr %2, align 4
  ret i32 %97
}