; Function Attrs: nofree norecurse nosync nounwind memory(read, inaccessiblemem: none) uwtable
define range(i32 -1, 2) i32 @Fra_FraigMiterStatus(ptr noundef readonly captures(none) %0) local_unnamed_addr #0 {
  %2 = getelementptr inbounds nuw i8, ptr %0, i64 296
  %3 = load ptr, ptr %2, align 8, !tbaa !3
  %.not = icmp eq ptr %3, null
  br i1 %.not, label %.preheader, label %.critedge.thread

.preheader:                                       ; preds = %1
  %4 = getelementptr i8, ptr %0, i64 140
  %.val = load i32, ptr %4, align 4, !tbaa !21
  %5 = getelementptr i8, ptr %0, i64 104
  %.val35 = load i32, ptr %5, align 8, !tbaa !22
  %6 = sub nsw i32 %.val, %.val35
  %7 = icmp sgt i32 %6, 0
  br i1 %7, label %.lr.ph, label %.critedge.thread

.lr.ph:                                           ; preds = %.preheader
  %8 = getelementptr inbounds nuw i8, ptr %0, i64 24
  %9 = load ptr, ptr %8, align 8, !tbaa !23
  %10 = getelementptr i8, ptr %9, i64 8
  %.val36 = load ptr, ptr %10, align 8, !tbaa !24
  %11 = getelementptr i8, ptr %0, i64 48
  %.val38 = load ptr, ptr %11, align 8, !tbaa !26
  %12 = ptrtoint ptr %.val38 to i64
  %13 = xor i64 %12, 1
  %14 = inttoptr i64 %13 to ptr
  %15 = getelementptr inbounds nuw i8, ptr %0, i64 108
  %wide.trip.count = zext nneg i32 %6 to i64
  br label %16

16:                                               ; preds = %.lr.ph, %46
  %indvars.iv = phi i64 [ 0, %.lr.ph ], [ %indvars.iv.next, %46 ]
  %.046 = phi i32 [ 0, %.lr.ph ], [ %.1, %46 ]
  %.02445 = phi i32 [ 0, %.lr.ph ], [ %.125, %46 ]
  %17 = getelementptr inbounds nuw ptr, ptr %.val36, i64 %indvars.iv
  %18 = load ptr, ptr %17, align 8, !tbaa !27
  %19 = getelementptr i8, ptr %18, i64 8
  %.val37 = load ptr, ptr %19, align 8, !tbaa !28
  %20 = icmp eq ptr %.val37, %14
  br i1 %20, label %46, label %21

21:                                               ; preds = %16
  %22 = icmp eq ptr %.val37, %.val38
  br i1 %22, label %23, label %25

23:                                               ; preds = %21
  %24 = add nsw i32 %.02445, 1
  br label %46

25:                                               ; preds = %21
  %26 = ptrtoint ptr %.val37 to i64
  %27 = and i64 %26, -2
  %28 = inttoptr i64 %27 to ptr
  %29 = getelementptr i8, ptr %28, i64 24
  %.val40 = load i64, ptr %29, align 8
  %30 = and i64 %.val40, 7
  %.not42 = icmp eq i64 %30, 2
  br i1 %.not42, label %31, label %36

31:                                               ; preds = %25
  %.val41 = load i32, ptr %28, align 8, !tbaa !29
  %32 = load i32, ptr %15, align 4, !tbaa !30
  %33 = icmp slt i32 %.val41, %32
  br i1 %33, label %34, label %36

34:                                               ; preds = %31
  %35 = add nsw i32 %.02445, 1
  br label %46

36:                                               ; preds = %31, %25
  %37 = trunc i64 %.val40 to i32
  %38 = lshr i32 %37, 3
  %39 = trunc i64 %26 to i32
  %40 = xor i32 %38, %39
  %41 = and i32 %40, 1
  %.not34 = icmp eq i32 %41, 0
  br i1 %.not34, label %44, label %42

42:                                               ; preds = %36
  %43 = add nsw i32 %.02445, 1
  br label %46

44:                                               ; preds = %36
  %45 = add nsw i32 %.046, 1
  br label %46

46:                                               ; preds = %16, %44, %42, %34, %23
  %.125 = phi i32 [ %24, %23 ], [ %35, %34 ], [ %43, %42 ], [ %.02445, %44 ], [ %.02445, %16 ]
  %.1 = phi i32 [ %.046, %23 ], [ %.046, %34 ], [ %.046, %42 ], [ %45, %44 ], [ %.046, %16 ]
  %indvars.iv.next = add nuw nsw i64 %indvars.iv, 1
  %exitcond.not = icmp eq i64 %indvars.iv.next, %wide.trip.count
  br i1 %exitcond.not, label %.critedge, label %16, !llvm.loop !31

.critedge:                                        ; preds = %46
  %47 = icmp eq i32 %.125, 0
  %48 = icmp eq i32 %.1, 0
  %49 = select i1 %48, i32 1, i32 -1
  %spec.select = select i1 %47, i32 %49, i32 0
  br label %.critedge.thread

.critedge.thread:                                 ; preds = %.critedge, %.preheader, %1
  %.029 = phi i32 [ 0, %1 ], [ 1, %.preheader ], [ %spec.select, %.critedge ]
  ret i32 %.029
}